target datalayout = "e-m:e-p270:32:32-p271:32:32-p272:64:64-i64:64-i128:128-f80:128-n8:16:32:64-S128"
target triple = "x86_64-pc-linux-gnu"

@bio_err = external global ptr, align 8
@.str.245 = private unnamed_addr constant [31 x i8] c"Error initialising X509 store\0A\00", align 1

; Function Attrs: nounwind uwtable
define internal i32 @self_signed(ptr noundef %0, ptr noundef %1) #0 {
  %3 = alloca ptr, align 8
  %4 = alloca ptr, align 8
  %5 = alloca ptr, align 8
  %6 = alloca i32, align 4
  store ptr %0, ptr %3, align 8, !tbaa !35
  store ptr %1, ptr %4, align 8, !tbaa !31
  call void @llvm.lifetime.start.p0(i64 8, ptr %5) #8
  %7 = call ptr @X509_STORE_CTX_new()
  store ptr %7, ptr %5, align 8, !tbaa !55
  call void @llvm.lifetime.start.p0(i64 4, ptr %6) #8
  store i32 0, ptr %6, align 4, !tbaa !4
  %8 = load ptr, ptr %5, align 8, !tbaa !55
  %9 = icmp eq ptr %8, null
  br i1 %9, label %16, label %10

10:                                               ; preds = %2
  %11 = load ptr, ptr %5, align 8, !tbaa !55
  %12 = load ptr, ptr %3, align 8, !tbaa !35
  %13 = load ptr, ptr %4, align 8, !tbaa !31
  %14 = call i32 @X509_STORE_CTX_init(ptr noundef %11, ptr noundef %12, ptr noundef %13, ptr noundef null)
  %15 = icmp ne i32 %14, 0
  br i1 %15, label %19, label %16

16:                                               ; preds = %10, %2
  %17 = load ptr, ptr @bio_err, align 8, !tbaa !15
  %18 = call i32 (ptr, ptr, ...) @BIO_printf(ptr noundef %17, ptr noundef @.str.245)
  br label %25

19:                                               ; preds = %10
  %20 = load ptr, ptr %5, align 8, !tbaa !55
  call void @X509_STORE_CTX_set_flags(ptr noundef %20, i64 noundef 16384)
  %21 = load ptr, ptr %5, align 8, !tbaa !55
  %22 = call i32 @X509_verify_cert(ptr noundef %21)
  %23 = icmp sgt i32 %22, 0
  %24 = zext i1 %23 to i32
  store i32 %24, ptr %6, align 4, !tbaa !4
  br label %25

25:                                               ; preds = %19, %16
  %26 = load ptr, ptr %5, align 8, !tbaa !55
  call void @X509_STORE_CTX_free(ptr noundef %26)
  %27 = load i32, ptr %6, align 4, !tbaa !4
  call void @llvm.lifetime.end.p0(i64 4, ptr %6) #8
  call void @llvm.lifetime.end.p0(i64 8, ptr %5) #8
  ret i32 %27
}