; Function Attrs: nounwind uwtable
define internal fastcc range(i32 0, 2) i32 @self_signed(ptr noundef nonnull %0, ptr noundef nonnull %1) unnamed_addr #0 {
  %3 = tail call ptr @X509_STORE_CTX_new() #8
  %4 = icmp eq ptr %3, null
  br i1 %4, label %7, label %5

5:                                                ; preds = %2
  %6 = tail call i32 @X509_STORE_CTX_init(ptr noundef nonnull %3, ptr noundef nonnull %0, ptr noundef nonnull %1, ptr noundef null) #8
  %.not = icmp eq i32 %6, 0
  br i1 %.not, label %7, label %10

7:                                                ; preds = %5, %2
  %8 = load ptr, ptr @bio_err, align 8, !tbaa !13
  %9 = tail call i32 (ptr, ptr, ...) @BIO_printf(ptr noundef %8, ptr noundef nonnull @.str.245) #8
  br label %14

10:                                               ; preds = %5
  tail call void @X509_STORE_CTX_set_flags(ptr noundef nonnull %3, i64 noundef 16384) #8
  %11 = tail call i32 @X509_verify_cert(ptr noundef nonnull %3) #8
  %12 = icmp sgt i32 %11, 0
  %13 = zext i1 %12 to i32
  br label %14

14:                                               ; preds = %10, %7
  %.0 = phi i32 [ 0, %7 ], [ %13, %10 ]
  tail call void @X509_STORE_CTX_free(ptr noundef %3) #8
  ret i32 %.0
}